; Function Attrs: mustprogress uwtable
define internal fastcc i64 @_ZN2cvL15normalizeAnchorENS_6Point_IiEENS_5Size_IiEE(i64 %0, i64 %1) unnamed_addr #3 personality ptr @__gxx_personality_v0 {
  %3 = alloca %"class.std::__cxx11::basic_string", align 8
  %4 = alloca %"class.std::allocator.18", align 1
  %.sroa.06.0.extract.trunc = trunc i64 %0 to i32
  %.sroa.5.0.extract.shift = lshr i64 %0, 32
  %.sroa.5.0.extract.trunc = trunc nuw i64 %.sroa.5.0.extract.shift to i32
  %.sroa.0.0.extract.trunc = trunc i64 %1 to i32
  %.sroa.3.0.extract.shift = lshr i64 %1, 32
  %.sroa.3.0.extract.trunc = trunc nuw i64 %.sroa.3.0.extract.shift to i32
  %5 = icmp eq i32 %.sroa.06.0.extract.trunc, -1
  %6 = sdiv i32 %.sroa.0.0.extract.trunc, 2
  %.sroa.06.0 = select i1 %5, i32 %6, i32 %.sroa.06.0.extract.trunc
  %7 = icmp eq i64 %.sroa.5.0.extract.shift, 4294967295
  %8 = sdiv i32 %.sroa.3.0.extract.trunc, 2
  %.sroa.5.0 = select i1 %7, i32 %8, i32 %.sroa.5.0.extract.trunc
  %.not.i.i = icmp sgt i32 %.sroa.06.0, -1
  %9 = icmp slt i32 %.sroa.06.0, %.sroa.0.0.extract.trunc
  %or.cond.not11.not13 = select i1 %.not.i.i, i1 %9, i1 false
  %.not8.i.i = icmp sgt i32 %.sroa.5.0, -1
  %or.cond9.not12 = select i1 %or.cond.not11.not13, i1 %.not8.i.i, i1 false
  %10 = icmp slt i32 %.sroa.5.0, %.sroa.3.0.extract.trunc
  %or.cond10 = select i1 %or.cond9.not12, i1 %10, i1 false
  br i1 %or.cond10, label %18, label %_ZNK2cv6Point_IiE6insideERKNS_5Rect_IiEE.exit.thread

_ZNK2cv6Point_IiE6insideERKNS_5Rect_IiEE.exit.thread: ; preds = %2
  call void @_ZNSaIcEC1Ev(ptr noundef nonnull align 1 dereferenceable(1) %4) #25
  invoke void @_ZNSt7__cxx1112basic_stringIcSt11char_traitsIcESaIcEEC1EPKcRKS3_(ptr noundef nonnull align 8 dereferenceable(32) %3, ptr noundef nonnull @.str.53, ptr noundef nonnull align 1 dereferenceable(1) %4)
          to label %11 unwind label %13

11:                                               ; preds = %_ZNK2cv6Point_IiE6insideERKNS_5Rect_IiEE.exit.thread
  invoke void @_ZN2cv5errorEiRKNSt7__cxx1112basic_stringIcSt11char_traitsIcESaIcEEEPKcS9_i(i32 noundef -215, ptr noundef nonnull align 8 dereferenceable(32) %3, ptr noundef nonnull @__func__._ZN2cvL15normalizeAnchorENS_6Point_IiEENS_5Size_IiEE, ptr noundef nonnull @.str.54, i32 noundef 367) #26
          to label %12 unwind label %15

12:                                               ; preds = %11
  unreachable

13:                                               ; preds = %_ZNK2cv6Point_IiE6insideERKNS_5Rect_IiEE.exit.thread
  %14 = landingpad { ptr, i32 }
          cleanup
  br label %17

15:                                               ; preds = %11
  %16 = landingpad { ptr, i32 }
          cleanup
  call void @_ZNSt7__cxx1112basic_stringIcSt11char_traitsIcESaIcEED1Ev(ptr noundef nonnull align 8 dereferenceable(32) %3) #25
  br label %17

17:                                               ; preds = %15, %13
  %.pn = phi { ptr, i32 } [ %16, %15 ], [ %14, %13 ]
  call void @_ZNSaIcED1Ev(ptr noundef nonnull align 1 dereferenceable(1) %4) #25
  resume { ptr, i32 } %.pn

18:                                               ; preds = %2
  %.sroa.5.0.insert.ext = zext nneg i32 %.sroa.5.0 to i64
  %.sroa.5.0.insert.shift = shl nuw nsw i64 %.sroa.5.0.insert.ext, 32
  %.sroa.06.0.insert.ext = zext nneg i32 %.sroa.06.0 to i64
  %.sroa.06.0.insert.insert = or disjoint i64 %.sroa.5.0.insert.shift, %.sroa.06.0.insert.ext
  ret i64 %.sroa.06.0.insert.insert
}